target datalayout = "e-m:e-p270:32:32-p271:32:32-p272:64:64-i64:64-i128:128-f80:128-n8:16:32:64-S128"
target triple = "x86_64-pc-linux-gnu"

%"struct.faiss::InvertedLists" = type <{ ptr, i64, i64, i8, [7 x i8] }>
%"struct.faiss::InvertedLists.base" = type <{ ptr, i64, i64, i8 }>
%"struct.faiss::ReadOnlyInvertedLists.base" = type { %"struct.faiss::InvertedLists.base" }
%"struct.faiss::SliceInvertedLists" = type { %"struct.faiss::ReadOnlyInvertedLists.base", ptr, i64, i64 }

; Function Attrs: mustprogress nounwind uwtable
define void @_ZN5faiss13InvertedListsC2Emm(ptr noundef nonnull align 8 dereferenceable(25) %0, i64 noundef %1, i64 noundef %2) unnamed_addr #1 align 2 {
  %4 = alloca ptr, align 8
  %5 = alloca i64, align 8
  %6 = alloca i64, align 8
  store ptr %0, ptr %4, align 8, !tbaa !9
  store i64 %1, ptr %5, align 8, !tbaa !11
  store i64 %2, ptr %6, align 8, !tbaa !11
  %7 = load ptr, ptr %4, align 8
  store ptr getelementptr inbounds inrange(-16, 144) ({ [20 x ptr] }, ptr @_ZTVN5faiss13InvertedListsE, i32 0, i32 0, i32 2), ptr %7, align 8, !tbaa !17
  %8 = getelementptr inbounds nuw %"struct.faiss::InvertedLists", ptr %7, i32 0, i32 1
  %9 = load i64, ptr %5, align 8, !tbaa !11
  store i64 %9, ptr %8, align 8, !tbaa !28
  %10 = getelementptr inbounds nuw %"struct.faiss::InvertedLists", ptr %7, i32 0, i32 2
  %11 = load i64, ptr %6, align 8, !tbaa !11
  store i64 %11, ptr %10, align 8, !tbaa !19
  %12 = getelementptr inbounds nuw %"struct.faiss::InvertedLists", ptr %7, i32 0, i32 3
  store i8 0, ptr %12, align 8, !tbaa !25
  ret void
}

; Function Attrs: mustprogress nounwind uwtable
define linkonce_odr void @_ZN5faiss21ReadOnlyInvertedListsC2Emm(ptr noundef nonnull align 8 dereferenceable(25) %0, i64 noundef %1, i64 noundef %2) unnamed_addr #1 comdat align 2 {
  %4 = alloca ptr, align 8
  %5 = alloca i64, align 8
  %6 = alloca i64, align 8
  store ptr %0, ptr %4, align 8, !tbaa !4
  store i64 %1, ptr %5, align 8, !tbaa !11
  store i64 %2, ptr %6, align 8, !tbaa !11
  %7 = load ptr, ptr %4, align 8
  %8 = load i64, ptr %5, align 8, !tbaa !11
  %9 = load i64, ptr %6, align 8, !tbaa !11
  call void @_ZN5faiss13InvertedListsC2Emm(ptr noundef nonnull align 8 dereferenceable(25) %7, i64 noundef %8, i64 noundef %9)
  store ptr getelementptr inbounds inrange(-16, 144) ({ [20 x ptr] }, ptr @_ZTVN5faiss21ReadOnlyInvertedListsE, i32 0, i32 0, i32 2), ptr %7, align 8, !tbaa !17
  ret void
}

; Function Attrs: mustprogress nounwind uwtable
define void @_ZN5faiss18SliceInvertedListsC2EPKNS_13InvertedListsEll(ptr noundef nonnull align 8 dereferenceable(56) %0, ptr noundef %1, i64 noundef %2, i64 noundef %3) unnamed_addr #1 align 2 {
  %5 = alloca ptr, align 8
  %6 = alloca ptr, align 8
  %7 = alloca i64, align 8
  %8 = alloca i64, align 8
  store ptr %0, ptr %5, align 8, !tbaa !43
  store ptr %1, ptr %6, align 8, !tbaa !9
  store i64 %2, ptr %7, align 8, !tbaa !11
  store i64 %3, ptr %8, align 8, !tbaa !11
  %9 = load ptr, ptr %5, align 8
  %10 = load i64, ptr %8, align 8, !tbaa !11
  %11 = load i64, ptr %7, align 8, !tbaa !11
  %12 = sub nsw i64 %10, %11
  %13 = load ptr, ptr %6, align 8, !tbaa !9
  %14 = getelementptr inbounds nuw %"struct.faiss::InvertedLists", ptr %13, i32 0, i32 2
  %15 = load i64, ptr %14, align 8, !tbaa !19
  call void @_ZN5faiss21ReadOnlyInvertedListsC2Emm(ptr noundef nonnull align 8 dereferenceable(25) %9, i64 noundef %12, i64 noundef %15)
  store ptr getelementptr inbounds inrange(-16, 144) ({ [20 x ptr] }, ptr @_ZTVN5faiss18SliceInvertedListsE, i32 0, i32 0, i32 2), ptr %9, align 8, !tbaa !17
  %16 = getelementptr inbounds nuw %"struct.faiss::SliceInvertedLists", ptr %9, i32 0, i32 1
  %17 = load ptr, ptr %6, align 8, !tbaa !9
  store ptr %17, ptr %16, align 8, !tbaa !45
  %18 = getelementptr inbounds nuw %"struct.faiss::SliceInvertedLists", ptr %9, i32 0, i32 2
  %19 = load i64, ptr %7, align 8, !tbaa !11
  store i64 %19, ptr %18, align 8, !tbaa !271
  %20 = getelementptr inbounds nuw %"struct.faiss::SliceInvertedLists", ptr %9, i32 0, i32 3
  %21 = load i64, ptr %8, align 8, !tbaa !11
  store i64 %21, ptr %20, align 8, !tbaa !272
  ret void
}